; Function Attrs: nounwind uwtable
define i32 @pmix_bfrops_base_pack_buffer(ptr noundef %0, ptr noundef %1, ptr noundef %2, i32 noundef %3, i16 noundef zeroext %4) local_unnamed_addr #0 {
  %6 = load i32, ptr getelementptr inbounds nuw (i8, ptr @pmix_bfrops_base_framework, i64 76), align 4, !tbaa !24
  %or.cond = icmp ult i32 %6, 64
  br i1 %or.cond, label %7, label %15

7:                                                ; preds = %5
  %8 = zext nneg i32 %6 to i64
  %9 = getelementptr inbounds nuw [0 x %struct.pmix_output_desc_t], ptr @pmix_output_info, i64 0, i64 %8, i32 2
  %10 = load i32, ptr %9, align 4, !tbaa !30
  %11 = icmp sgt i32 %10, 19
  br i1 %11, label %12, label %15

12:                                               ; preds = %7
  %13 = sext i32 %3 to i64
  %14 = zext i16 %4 to i32
  tail call void (i32, ptr, ...) @pmix_output(i32 noundef %6, ptr noundef nonnull @.str.2, ptr noundef %1, ptr noundef %2, i64 noundef %13, i32 noundef %14) #8
  br label %15

15:                                               ; preds = %12, %7, %5
  %16 = getelementptr inbounds nuw i8, ptr %1, i64 120
  %17 = load i8, ptr %16, align 8, !tbaa !7
  %18 = icmp eq i8 %17, 2
  br i1 %18, label %19, label %21

19:                                               ; preds = %15
  %20 = tail call i32 @pmix_bfrop_store_data_type(ptr noundef %0, ptr noundef nonnull %1, i16 noundef zeroext %4) #8
  %.not = icmp eq i32 %20, 0
  br i1 %.not, label %21, label %pmix_pointer_array_get_item.exit.thread

21:                                               ; preds = %15, %19
  %22 = zext i16 %4 to i32
  %23 = getelementptr inbounds nuw i8, ptr %0, i64 128
  %24 = load i32, ptr %23, align 8, !tbaa !15
  %.not.i = icmp sgt i32 %24, %22
  br i1 %.not.i, label %pmix_pointer_array_get_item.exit, label %pmix_pointer_array_get_item.exit.thread, !prof !18

pmix_pointer_array_get_item.exit:                 ; preds = %21
  %25 = getelementptr inbounds nuw i8, ptr %0, i64 152
  %26 = load ptr, ptr %25, align 8, !tbaa !19
  %27 = zext i16 %4 to i64
  %28 = getelementptr inbounds nuw ptr, ptr %26, i64 %27
  %29 = load ptr, ptr %28, align 8, !tbaa !20
  %30 = icmp eq ptr %29, null
  br i1 %30, label %pmix_pointer_array_get_item.exit.thread, label %31

31:                                               ; preds = %pmix_pointer_array_get_item.exit
  %32 = getelementptr inbounds nuw i8, ptr %29, i64 136
  %33 = load ptr, ptr %32, align 8, !tbaa !21
  %34 = tail call i32 %33(ptr noundef nonnull %0, ptr noundef nonnull %1, ptr noundef %2, i32 noundef %3, i16 noundef zeroext %4) #8
  br label %pmix_pointer_array_get_item.exit.thread

pmix_pointer_array_get_item.exit.thread:          ; preds = %21, %31, %pmix_pointer_array_get_item.exit, %19
  %.0 = phi i32 [ %20, %19 ], [ %34, %31 ], [ -16, %pmix_pointer_array_get_item.exit ], [ -16, %21 ]
  ret i32 %.0
}